target datalayout = "e-m:e-p270:32:32-p271:32:32-p272:64:64-i64:64-i128:128-f80:128-n8:16:32:64-S128"
target triple = "x86_64-pc-linux-gnu"

%class.dtTileCache = type { i32, i32, ptr, ptr, ptr, i32, i32, %struct.dtTileCacheParams, ptr, ptr, ptr, ptr, ptr, [64 x %"struct.dtTileCache::ObstacleRequest"], i32, [64 x i32], i32 }
%struct.dtTileCacheParams = type { [3 x float], float, float, i32, i32, float, float, float, float, i32, i32 }
%"struct.dtTileCache::ObstacleRequest" = type { i32, i32 }
%struct.dtTileCacheObstacle = type { %union.anon, [8 x i32], [8 x i32], i16, i8, i8, i8, i8, ptr }
%union.anon = type { %struct.dtObstacleOrientedBox }
%struct.dtObstacleOrientedBox = type { [3 x float], [3 x float], [2 x float] }

; Function Attrs: mustprogress nounwind uwtable
define linkonce_odr noundef i32 @_ZNK11dtTileCache20decodeObstacleIdSaltEj(ptr noundef nonnull align 8 dereferenceable(912) %0, i32 noundef %1) #2 comdat align 2 {
  %3 = alloca ptr, align 8
  %4 = alloca i32, align 4
  %5 = alloca i32, align 4
  store ptr %0, ptr %3, align 8
  store i32 %1, ptr %4, align 4
  store i32 65535, ptr %5, align 4
  %6 = load i32, ptr %4, align 4
  %7 = lshr i32 %6, 16
  %8 = and i32 %7, 65535
  ret i32 %8
}

; Function Attrs: mustprogress nounwind uwtable
define linkonce_odr noundef i32 @_ZNK11dtTileCache24decodeObstacleIdObstacleEj(ptr noundef nonnull align 8 dereferenceable(912) %0, i32 noundef %1) #2 comdat align 2 {
  %3 = alloca ptr, align 8
  %4 = alloca i32, align 4
  %5 = alloca i32, align 4
  store ptr %0, ptr %3, align 8
  store i32 %1, ptr %4, align 4
  store i32 65535, ptr %5, align 4
  %6 = load i32, ptr %4, align 4
  %7 = and i32 %6, 65535
  ret i32 %7
}

; Function Attrs: mustprogress uwtable
define noundef ptr @_ZN11dtTileCache16getObstacleByRefEj(ptr noundef nonnull align 8 dereferenceable(912) %0, i32 noundef %1) #0 align 2 {
  %3 = alloca ptr, align 8
  %4 = alloca ptr, align 8
  %5 = alloca i32, align 4
  %6 = alloca i32, align 4
  %7 = alloca ptr, align 8
  %8 = alloca i32, align 4
  store ptr %0, ptr %4, align 8
  store i32 %1, ptr %5, align 4
  %9 = load ptr, ptr %4, align 8
  %10 = load i32, ptr %5, align 4
  %11 = icmp ne i32 %10, 0
  br i1 %11, label %13, label %12

12:                                               ; preds = %2
  store ptr null, ptr %3, align 8
  br label %39

13:                                               ; preds = %2
  %14 = load i32, ptr %5, align 4
  %15 = call noundef i32 @_ZNK11dtTileCache24decodeObstacleIdObstacleEj(ptr noundef nonnull align 8 dereferenceable(912) %9, i32 noundef %14)
  store i32 %15, ptr %6, align 4
  %16 = load i32, ptr %6, align 4
  %17 = getelementptr inbounds %class.dtTileCache, ptr %9, i32 0, i32 7
  %18 = getelementptr inbounds %struct.dtTileCacheParams, ptr %17, i32 0, i32 10
  %19 = load i32, ptr %18, align 8
  %20 = icmp sge i32 %16, %19
  br i1 %20, label %21, label %22

21:                                               ; preds = %13
  store ptr null, ptr %3, align 8
  br label %39

22:                                               ; preds = %13
  %23 = getelementptr inbounds %class.dtTileCache, ptr %9, i32 0, i32 11
  %24 = load ptr, ptr %23, align 8
  %25 = load i32, ptr %6, align 4
  %26 = zext i32 %25 to i64
  %27 = getelementptr inbounds %struct.dtTileCacheObstacle, ptr %24, i64 %26
  store ptr %27, ptr %7, align 8
  %28 = load i32, ptr %5, align 4
  %29 = call noundef i32 @_ZNK11dtTileCache20decodeObstacleIdSaltEj(ptr noundef nonnull align 8 dereferenceable(912) %9, i32 noundef %28)
  store i32 %29, ptr %8, align 4
  %30 = load ptr, ptr %7, align 8
  %31 = getelementptr inbounds %struct.dtTileCacheObstacle, ptr %30, i32 0, i32 3
  %32 = load i16, ptr %31, align 8
  %33 = zext i16 %32 to i32
  %34 = load i32, ptr %8, align 4
  %35 = icmp ne i32 %33, %34
  br i1 %35, label %36, label %37

36:                                               ; preds = %22
  store ptr null, ptr %3, align 8
  br label %39

37:                                               ; preds = %22
  %38 = load ptr, ptr %7, align 8
  store ptr %38, ptr %3, align 8
  br label %39

39:                                               ; preds = %37, %36, %21, %12
  %40 = load ptr, ptr %3, align 8
  ret ptr %40
}