; Function Attrs: mustprogress nofree norecurse nosync nounwind willreturn memory(read, inaccessiblemem: none) uwtable
define noundef ptr @_ZN11dtTileCache16getObstacleByRefEj(ptr noundef nonnull readonly align 8 captures(none) dereferenceable(912) %0, i32 noundef %1) local_unnamed_addr #7 align 2 {
  %.not = icmp eq i32 %1, 0
  br i1 %.not, label %16, label %3

3:                                                ; preds = %2
  %4 = and i32 %1, 65535
  %5 = getelementptr inbounds nuw i8, ptr %0, i64 88
  %6 = load i32, ptr %5, align 8
  %.not11 = icmp slt i32 %4, %6
  br i1 %.not11, label %7, label %16

7:                                                ; preds = %3
  %8 = getelementptr inbounds nuw i8, ptr %0, i64 120
  %9 = load ptr, ptr %8, align 8
  %10 = zext nneg i32 %4 to i64
  %11 = getelementptr inbounds nuw %struct.dtTileCacheObstacle, ptr %9, i64 %10
  %12 = lshr i32 %1, 16
  %13 = getelementptr inbounds nuw i8, ptr %11, i64 96
  %14 = load i16, ptr %13, align 8
  %15 = zext i16 %14 to i32
  %.not12 = icmp eq i32 %12, %15
  %. = select i1 %.not12, ptr %11, ptr null
  br label %16

16:                                               ; preds = %7, %3, %2
  %.0 = phi ptr [ null, %2 ], [ null, %3 ], [ %., %7 ]
  ret ptr %.0
}